; Function Attrs: mustprogress uwtable
define void @_ZN7rocksdb14AutoRollLogger15WriteHeaderInfoEv(ptr noundef nonnull align 8 dereferenceable(648) %0) local_unnamed_addr #0 align 2 personality ptr @__gxx_personality_v0 {
  %2 = getelementptr inbounds nuw i8, ptr %0, i64 608
  tail call void @_ZNK7rocksdb4port5Mutex10AssertHeldEv(ptr noundef nonnull align 8 dereferenceable(40) %2)
  %3 = getelementptr inbounds nuw i8, ptr %0, i64 232
  %.sroa.04.07 = load ptr, ptr %3, align 8, !tbaa !97
  %.not8 = icmp eq ptr %.sroa.04.07, %3
  br i1 %.not8, label %._crit_edge, label %.lr.ph

._crit_edge:                                      ; preds = %.lr.ph, %1
  ret void

.lr.ph:                                           ; preds = %1, %.lr.ph
  %.sroa.04.09 = phi ptr [ %.sroa.04.0, %.lr.ph ], [ %.sroa.04.07, %1 ]
  %4 = getelementptr inbounds nuw i8, ptr %.sroa.04.09, i64 16
  %5 = load ptr, ptr %4, align 8, !tbaa !21
  tail call void (ptr, ptr, ...) @_ZN7rocksdb14AutoRollLogger11LogInternalEPKcz(ptr noundef nonnull align 8 dereferenceable(648) %0, ptr noundef nonnull @.str.4, ptr noundef %5)
  %.sroa.04.0 = load ptr, ptr %.sroa.04.09, align 8, !tbaa !97
  %.not = icmp eq ptr %.sroa.04.0, %3
  br i1 %.not, label %._crit_edge, label %.lr.ph
}